; Function Attrs: mustprogress nofree norecurse nosync nounwind willreturn memory(readwrite, inaccessiblemem: none) uwtable
define hidden void @_ZN10ODDLParser5Value7setBoolEb(ptr noundef nonnull readonly align 8 captures(none) dereferenceable(32) %0, i1 noundef zeroext %1) local_unnamed_addr #10 align 2 {
  %3 = alloca i8, align 1
  %4 = zext i1 %1 to i8
  store i8 %4, ptr %3, align 1
  %5 = getelementptr inbounds nuw i8, ptr %0, i64 16
  %6 = load ptr, ptr %5, align 8
  %7 = getelementptr inbounds nuw i8, ptr %0, i64 8
  %8 = load i64, ptr %7, align 8
  call void @llvm.memcpy.p0.p0.i64(ptr align 1 %6, ptr nonnull align 1 %3, i64 %8, i1 false)
  ret void
}